target datalayout = "e-m:e-p270:32:32-p271:32:32-p272:64:64-i64:64-i128:128-f80:128-n8:16:32:64-S128"
target triple = "x86_64-pc-linux-gnu"

%"class.pbrt::PiecewiseLinearSpectrum" = type { %"class.pstd::vector", %"class.pstd::vector" }
%"class.pstd::vector" = type { %"class.pstd::pmr::polymorphic_allocator", ptr, i64, i64 }
%"class.pstd::pmr::polymorphic_allocator" = type { ptr }
%"struct.__gnu_cxx::__ops::_Iter_less_iter" = type { i8 }

; Function Attrs: mustprogress nounwind uwtable
define linkonce_odr dso_local noundef zeroext i1 @_ZNK9__gnu_cxx5__ops15_Iter_less_iterclIPKfS4_EEbT_T0_(ptr noundef nonnull align 1 dereferenceable(1) %0, ptr noundef %1, ptr noundef %2) #3 comdat align 2 {
  %4 = alloca ptr, align 8
  %5 = alloca ptr, align 8
  %6 = alloca ptr, align 8
  store ptr %0, ptr %4, align 8, !tbaa !241
  store ptr %1, ptr %5, align 8, !tbaa !48
  store ptr %2, ptr %6, align 8, !tbaa !48
  %7 = load ptr, ptr %5, align 8, !tbaa !48
  %8 = load float, ptr %7, align 4, !tbaa !9
  %9 = load ptr, ptr %6, align 8, !tbaa !48
  %10 = load float, ptr %9, align 4, !tbaa !9
  %11 = fcmp olt float %8, %10
  ret i1 %11
}

; Function Attrs: mustprogress uwtable
define linkonce_odr dso_local noundef ptr @_ZSt13__max_elementIPKfN9__gnu_cxx5__ops15_Iter_less_iterEET_S5_S5_T0_(ptr noundef %0, ptr noundef %1) #1 comdat {
  %3 = alloca ptr, align 8
  %4 = alloca %"struct.__gnu_cxx::__ops::_Iter_less_iter", align 1
  %5 = alloca ptr, align 8
  %6 = alloca ptr, align 8
  %7 = alloca ptr, align 8
  store ptr %0, ptr %5, align 8, !tbaa !48
  store ptr %1, ptr %6, align 8, !tbaa !48
  %8 = load ptr, ptr %5, align 8, !tbaa !48
  %9 = load ptr, ptr %6, align 8, !tbaa !48
  %10 = icmp eq ptr %8, %9
  br i1 %10, label %11, label %13

11:                                               ; preds = %2
  %12 = load ptr, ptr %5, align 8, !tbaa !48
  store ptr %12, ptr %3, align 8
  br label %29

13:                                               ; preds = %2
  call void @llvm.lifetime.start.p0(i64 8, ptr %7) #12
  %14 = load ptr, ptr %5, align 8, !tbaa !48
  store ptr %14, ptr %7, align 8, !tbaa !48
  br label %15

15:                                               ; preds = %26, %13
  %16 = load ptr, ptr %5, align 8, !tbaa !48
  %17 = getelementptr inbounds nuw float, ptr %16, i32 1
  store ptr %17, ptr %5, align 8, !tbaa !48
  %18 = load ptr, ptr %6, align 8, !tbaa !48
  %19 = icmp ne ptr %17, %18
  br i1 %19, label %20, label %27

20:                                               ; preds = %15
  %21 = load ptr, ptr %7, align 8, !tbaa !48
  %22 = load ptr, ptr %5, align 8, !tbaa !48
  %23 = call noundef zeroext i1 @_ZNK9__gnu_cxx5__ops15_Iter_less_iterclIPKfS4_EEbT_T0_(ptr noundef nonnull align 1 dereferenceable(1) %4, ptr noundef %21, ptr noundef %22)
  br i1 %23, label %24, label %26

24:                                               ; preds = %20
  %25 = load ptr, ptr %5, align 8, !tbaa !48
  store ptr %25, ptr %7, align 8, !tbaa !48
  br label %26

26:                                               ; preds = %24, %20
  br label %15, !llvm.loop !240

27:                                               ; preds = %15
  %28 = load ptr, ptr %7, align 8, !tbaa !48
  store ptr %28, ptr %3, align 8
  call void @llvm.lifetime.end.p0(i64 8, ptr %7) #12
  br label %29

29:                                               ; preds = %27, %11
  %30 = load ptr, ptr %3, align 8
  ret ptr %30
}

; Function Attrs: inlinehint mustprogress nounwind uwtable
define linkonce_odr dso_local void @_ZN9__gnu_cxx5__ops16__iter_less_iterEv() #5 comdat {
  ret void
}

; Function Attrs: mustprogress nounwind uwtable
define linkonce_odr dso_local noundef i64 @_ZNK4pstd6vectorIfNS_3pmr21polymorphic_allocatorIfEEE4sizeEv(ptr noundef nonnull align 8 dereferenceable(32) %0) #3 comdat align 2 {
  %2 = alloca ptr, align 8
  store ptr %0, ptr %2, align 8, !tbaa !51
  %3 = load ptr, ptr %2, align 8
  %4 = getelementptr inbounds nuw %"class.pstd::vector", ptr %3, i32 0, i32 3
  %5 = load i64, ptr %4, align 8, !tbaa !57
  ret i64 %5
}

; Function Attrs: inlinehint mustprogress uwtable
define linkonce_odr dso_local noundef ptr @_ZSt11max_elementIPKfET_S2_S2_(ptr noundef %0, ptr noundef %1) #4 comdat {
  %3 = alloca ptr, align 8
  %4 = alloca ptr, align 8
  store ptr %0, ptr %3, align 8, !tbaa !48
  store ptr %1, ptr %4, align 8, !tbaa !48
  %5 = load ptr, ptr %3, align 8, !tbaa !48
  %6 = load ptr, ptr %4, align 8, !tbaa !48
  call void @_ZN9__gnu_cxx5__ops16__iter_less_iterEv()
  %7 = call noundef ptr @_ZSt13__max_elementIPKfN9__gnu_cxx5__ops15_Iter_less_iterEET_S5_S5_T0_(ptr noundef %5, ptr noundef %6)
  ret ptr %7
}

; Function Attrs: mustprogress nounwind uwtable
define linkonce_odr dso_local noundef ptr @_ZNK4pstd6vectorIfNS_3pmr21polymorphic_allocatorIfEEE3endEv(ptr noundef nonnull align 8 dereferenceable(32) %0) #3 comdat align 2 {
  %2 = alloca ptr, align 8
  store ptr %0, ptr %2, align 8, !tbaa !51
  %3 = load ptr, ptr %2, align 8
  %4 = getelementptr inbounds nuw %"class.pstd::vector", ptr %3, i32 0, i32 1
  %5 = load ptr, ptr %4, align 8, !tbaa !53
  %6 = getelementptr inbounds nuw %"class.pstd::vector", ptr %3, i32 0, i32 3
  %7 = load i64, ptr %6, align 8, !tbaa !57
  %8 = getelementptr inbounds nuw float, ptr %5, i64 %7
  ret ptr %8
}

; Function Attrs: mustprogress nounwind uwtable
define linkonce_odr dso_local noundef ptr @_ZNK4pstd6vectorIfNS_3pmr21polymorphic_allocatorIfEEE5beginEv(ptr noundef nonnull align 8 dereferenceable(32) %0) #3 comdat align 2 {
  %2 = alloca ptr, align 8
  store ptr %0, ptr %2, align 8, !tbaa !51
  %3 = load ptr, ptr %2, align 8
  %4 = getelementptr inbounds nuw %"class.pstd::vector", ptr %3, i32 0, i32 1
  %5 = load ptr, ptr %4, align 8, !tbaa !53
  ret ptr %5
}

; Function Attrs: mustprogress nounwind uwtable
define linkonce_odr dso_local noundef zeroext i1 @_ZNK4pstd6vectorIfNS_3pmr21polymorphic_allocatorIfEEE5emptyEv(ptr noundef nonnull align 8 dereferenceable(32) %0) #3 comdat align 2 {
  %2 = alloca ptr, align 8
  store ptr %0, ptr %2, align 8, !tbaa !51
  %3 = load ptr, ptr %2, align 8
  %4 = call noundef i64 @_ZNK4pstd6vectorIfNS_3pmr21polymorphic_allocatorIfEEE4sizeEv(ptr noundef nonnull align 8 dereferenceable(32) %3)
  %5 = icmp eq i64 %4, 0
  ret i1 %5
}

; Function Attrs: mustprogress uwtable
define dso_local noundef float @_ZNK4pbrt23PiecewiseLinearSpectrum8MaxValueEv(ptr noundef nonnull align 8 dereferenceable(64) %0) #1 align 2 {
  %2 = alloca float, align 4
  %3 = alloca ptr, align 8
  store ptr %0, ptr %3, align 8, !tbaa !43
  %4 = load ptr, ptr %3, align 8
  %5 = getelementptr inbounds nuw %"class.pbrt::PiecewiseLinearSpectrum", ptr %4, i32 0, i32 1
  %6 = call noundef zeroext i1 @_ZNK4pstd6vectorIfNS_3pmr21polymorphic_allocatorIfEEE5emptyEv(ptr noundef nonnull align 8 dereferenceable(32) %5)
  br i1 %6, label %7, label %8

7:                                                ; preds = %1
  store float 0.000000e+00, ptr %2, align 4
  br label %15

8:                                                ; preds = %1
  %9 = getelementptr inbounds nuw %"class.pbrt::PiecewiseLinearSpectrum", ptr %4, i32 0, i32 1
  %10 = call noundef ptr @_ZNK4pstd6vectorIfNS_3pmr21polymorphic_allocatorIfEEE5beginEv(ptr noundef nonnull align 8 dereferenceable(32) %9)
  %11 = getelementptr inbounds nuw %"class.pbrt::PiecewiseLinearSpectrum", ptr %4, i32 0, i32 1
  %12 = call noundef ptr @_ZNK4pstd6vectorIfNS_3pmr21polymorphic_allocatorIfEEE3endEv(ptr noundef nonnull align 8 dereferenceable(32) %11)
  %13 = call noundef ptr @_ZSt11max_elementIPKfET_S2_S2_(ptr noundef %10, ptr noundef %12)
  %14 = load float, ptr %13, align 4, !tbaa !9
  store float %14, ptr %2, align 4
  br label %15

15:                                               ; preds = %8, %7
  %16 = load float, ptr %2, align 4
  ret float %16
}