; Function Attrs: mustprogress nofree norecurse nosync nounwind willreturn memory(read, inaccessiblemem: none) uwtable
define dso_local noundef float @_ZNK4pbrt23PiecewiseLinearSpectrum8MaxValueEv(ptr noundef nonnull readonly align 8 captures(none) dereferenceable(64) %0) local_unnamed_addr #4 align 2 {
  %2 = getelementptr inbounds nuw i8, ptr %0, i64 56
  %3 = load i64, ptr %2, align 8, !tbaa !60
  %4 = icmp eq i64 %3, 0
  br i1 %4, label %17, label %5

5:                                                ; preds = %1
  %6 = getelementptr inbounds nuw i8, ptr %0, i64 40
  %7 = load ptr, ptr %6, align 8, !tbaa !64
  %.idx = shl nuw nsw i64 %3, 2
  %8 = getelementptr inbounds nuw i8, ptr %7, i64 %.idx
  %.not17.i.i = icmp eq i64 %3, 1
  br i1 %.not17.i.i, label %_ZSt11max_elementIPKfET_S2_S2_.exit, label %.lr.ph.preheader.i.i

.lr.ph.preheader.i.i:                             ; preds = %5
  %9 = getelementptr inbounds nuw i8, ptr %7, i64 4
  %.pre.i.i = load float, ptr %7, align 4, !tbaa !16
  br label %.lr.ph.i.i

.lr.ph.i.i:                                       ; preds = %.lr.ph.i.i, %.lr.ph.preheader.i.i
  %10 = phi float [ %14, %.lr.ph.i.i ], [ %.pre.i.i, %.lr.ph.preheader.i.i ]
  %11 = phi ptr [ %15, %.lr.ph.i.i ], [ %9, %.lr.ph.preheader.i.i ]
  %.018.i.i = phi ptr [ %spec.select.i.i, %.lr.ph.i.i ], [ %7, %.lr.ph.preheader.i.i ]
  %12 = load float, ptr %11, align 4, !tbaa !16
  %13 = fcmp olt float %10, %12
  %14 = select i1 %13, float %12, float %10
  %spec.select.i.i = select i1 %13, ptr %11, ptr %.018.i.i
  %15 = getelementptr inbounds nuw i8, ptr %11, i64 4
  %.not.i.i = icmp eq ptr %15, %8
  br i1 %.not.i.i, label %_ZSt11max_elementIPKfET_S2_S2_.exit, label %.lr.ph.i.i, !llvm.loop !66

_ZSt11max_elementIPKfET_S2_S2_.exit:              ; preds = %.lr.ph.i.i, %5
  %.011.i.i = phi ptr [ %7, %5 ], [ %spec.select.i.i, %.lr.ph.i.i ]
  %16 = load float, ptr %.011.i.i, align 4, !tbaa !16
  br label %17

17:                                               ; preds = %1, %_ZSt11max_elementIPKfET_S2_S2_.exit
  %.0 = phi float [ %16, %_ZSt11max_elementIPKfET_S2_S2_.exit ], [ 0.000000e+00, %1 ]
  ret float %.0
}